target datalayout = "e-m:e-p270:32:32-p271:32:32-p272:64:64-i64:64-i128:128-f80:128-n8:16:32:64-S128"
target triple = "x86_64-pc-linux-gnu"

%"class.icu_77::Locale" = type <{ %"class.icu_77::UObject", [12 x i8], [6 x i8], [4 x i8], [2 x i8], i32, [4 x i8], ptr, [157 x i8], [3 x i8], ptr, i8, [7 x i8] }>
%"class.icu_77::UObject" = type { ptr }

; Function Attrs: inlinehint mustprogress nounwind uwtable
define internal noundef signext i8 @_ZL9U_FAILURE10UErrorCode(i32 noundef %0) #6 {
  %2 = alloca i32, align 4
  store i32 %0, ptr %2, align 4, !tbaa !25
  %3 = load i32, ptr %2, align 4, !tbaa !25
  %4 = icmp sgt i32 %3, 0
  %5 = zext i1 %4 to i8
  ret i8 %5
}

; Function Attrs: inlinehint mustprogress nounwind uwtable
define linkonce_odr noundef ptr @_ZNK6icu_776Locale7getNameEv(ptr noundef nonnull align 8 dereferenceable(217) %0) #6 comdat align 2 {
  %2 = alloca ptr, align 8
  store ptr %0, ptr %2, align 8, !tbaa !8
  %3 = load ptr, ptr %2, align 8
  %4 = getelementptr inbounds nuw %"class.icu_77::Locale", ptr %3, i32 0, i32 7
  %5 = load ptr, ptr %4, align 8, !tbaa !100
  ret ptr %5
}

; Function Attrs: mustprogress uwtable
define void @_ZN6icu_778Collator23getFunctionalEquivalentEPKcRKNS_6LocaleERaR10UErrorCode(ptr dead_on_unwind noalias writable sret(%"class.icu_77::Locale") align 8 %0, ptr noundef %1, ptr noundef nonnull align 8 dereferenceable(217) %2, ptr noundef nonnull align 1 dereferenceable(1) %3, ptr noundef nonnull align 4 dereferenceable(4) %4) #3 align 2 {
  %6 = alloca ptr, align 8
  %7 = alloca ptr, align 8
  %8 = alloca ptr, align 8
  %9 = alloca ptr, align 8
  %10 = alloca ptr, align 8
  %11 = alloca [157 x i8], align 16
  store ptr %0, ptr %6, align 8
  store ptr %1, ptr %7, align 8, !tbaa !51
  store ptr %2, ptr %8, align 8, !tbaa !8
  store ptr %3, ptr %9, align 8, !tbaa !51
  store ptr %4, ptr %10, align 8, !tbaa !18
  call void @llvm.lifetime.start.p0(i64 157, ptr %11) #14
  %12 = getelementptr inbounds [157 x i8], ptr %11, i64 0, i64 0
  %13 = load ptr, ptr %7, align 8, !tbaa !51
  %14 = load ptr, ptr %8, align 8, !tbaa !8
  %15 = call noundef ptr @_ZNK6icu_776Locale7getNameEv(ptr noundef nonnull align 8 dereferenceable(217) %14)
  %16 = load ptr, ptr %9, align 8, !tbaa !51
  %17 = load ptr, ptr %10, align 8, !tbaa !18
  %18 = call i32 @ucol_getFunctionalEquivalent_77(ptr noundef %12, i32 noundef 157, ptr noundef %13, ptr noundef %15, ptr noundef %16, ptr noundef %17)
  %19 = load ptr, ptr %10, align 8, !tbaa !18
  %20 = load i32, ptr %19, align 4, !tbaa !25
  %21 = call noundef signext i8 @_ZL9U_FAILURE10UErrorCode(i32 noundef %20)
  %22 = icmp ne i8 %21, 0
  br i1 %22, label %23, label %25

23:                                               ; preds = %5
  %24 = getelementptr inbounds [157 x i8], ptr %11, i64 0, i64 0
  store i8 0, ptr %24, align 16, !tbaa !38
  br label %25

25:                                               ; preds = %23, %5
  %26 = getelementptr inbounds [157 x i8], ptr %11, i64 0, i64 0
  call void @_ZN6icu_776Locale14createFromNameEPKc(ptr dead_on_unwind writable sret(%"class.icu_77::Locale") align 8 %0, ptr noundef %26)
  call void @llvm.lifetime.end.p0(i64 157, ptr %11) #14
  ret void
}