; Function Attrs: mustprogress uwtable
define void @_ZN6icu_778Collator23getFunctionalEquivalentEPKcRKNS_6LocaleERaR10UErrorCode(ptr dead_on_unwind noalias writable sret(%"class.icu_77::Locale") align 8 %0, ptr noundef %1, ptr noundef nonnull readonly align 8 captures(none) dereferenceable(217) %2, ptr noundef nonnull align 1 dereferenceable(1) %3, ptr noundef nonnull align 4 dereferenceable(4) %4) local_unnamed_addr #5 align 2 {
  %6 = alloca [157 x i8], align 16
  call void @llvm.lifetime.start.p0(i64 157, ptr nonnull %6) #16
  %7 = getelementptr inbounds nuw i8, ptr %2, i64 40
  %8 = load ptr, ptr %7, align 8, !tbaa !17
  %9 = call i32 @ucol_getFunctionalEquivalent_77(ptr noundef nonnull %6, i32 noundef 157, ptr noundef %1, ptr noundef %8, ptr noundef nonnull %3, ptr noundef nonnull %4)
  %10 = load i32, ptr %4, align 4, !tbaa !6
  %11 = icmp slt i32 %10, 1
  br i1 %11, label %13, label %12

12:                                               ; preds = %5
  store i8 0, ptr %6, align 16, !tbaa !29
  br label %13

13:                                               ; preds = %12, %5
  call void @_ZN6icu_776Locale14createFromNameEPKc(ptr dead_on_unwind writable sret(%"class.icu_77::Locale") align 8 %0, ptr noundef nonnull %6)
  call void @llvm.lifetime.end.p0(i64 157, ptr nonnull %6) #16
  ret void
}